; Function Attrs: nounwind uwtable
define internal void @op_cbfunc(i32 noundef %0, ptr noundef initializes((500, 504)) %1) #0 {
  %3 = getelementptr inbounds nuw i8, ptr %1, i64 500
  store i32 %0, ptr %3, align 4, !tbaa !75
  fence release
  %4 = getelementptr inbounds nuw i8, ptr %1, i64 400
  %5 = tail call i32 @pthread_mutex_lock(ptr noundef nonnull %4) #12
  %6 = getelementptr inbounds nuw i8, ptr %1, i64 488
  store volatile i8 0, ptr %6, align 8, !tbaa !60
  fence release
  %7 = getelementptr inbounds nuw i8, ptr %1, i64 440
  %8 = tail call i32 @pthread_cond_broadcast(ptr noundef nonnull %7) #12
  %9 = tail call i32 @pthread_mutex_unlock(ptr noundef nonnull %4) #12
  ret void
}